; Function Attrs: mustprogress nofree norecurse nosync nounwind willreturn memory(argmem: read) uwtable
define range(i32 0, 65536) i32 @wolfSSL_get_current_cipher_suite(ptr noundef readonly captures(address_is_null) %0) local_unnamed_addr #9 {
  %.not = icmp eq ptr %0, null
  br i1 %.not, label %11, label %2

2:                                                ; preds = %1
  %3 = getelementptr inbounds nuw i8, ptr %0, i64 1037
  %4 = load i8, ptr %3, align 1, !tbaa !93
  %5 = zext i8 %4 to i32
  %6 = shl nuw nsw i32 %5, 8
  %7 = getelementptr inbounds nuw i8, ptr %0, i64 1038
  %8 = load i8, ptr %7, align 2, !tbaa !95
  %9 = zext i8 %8 to i32
  %10 = or disjoint i32 %6, %9
  br label %11

11:                                               ; preds = %1, %2
  %.0 = phi i32 [ %10, %2 ], [ 0, %1 ]
  ret i32 %.0
}